target datalayout = "e-m:e-p270:32:32-p271:32:32-p272:64:64-i64:64-i128:128-f80:128-n8:16:32:64-S128"
target triple = "x86_64-pc-linux-gnu"

%class.QString = type { ptr }
%class.TFHandle = type <{ %class.Handle, i32, [4 x i8], ptr, i8, [7 x i8] }>
%class.Handle = type { %class.QGraphicsObject, %class.QColor, i32, ptr }
%class.QGraphicsObject = type { %class.QObject, %class.QGraphicsItem }
%class.QObject = type { ptr, %class.QScopedPointer }
%class.QScopedPointer = type { ptr }
%class.QGraphicsItem = type { ptr, %class.QScopedPointer.16 }
%class.QScopedPointer.16 = type { ptr }
%class.QColor = type <{ i32, %"union.QColor::CT", [2 x i8] }>
%"union.QColor::CT" = type { %struct.anon }
%struct.anon = type { i16, i16, i16, i16, i16 }
%struct.TF_KEY = type { float, float }
%class.QualityMapperDialog = type { %class.QDockWidget, %"class.Ui::QualityMapperDialogClass", ptr, ptr, %class.QGraphicsScene, [3 x ptr], double, i8, i8, %class.QList, i32, ptr, ptr, ptr, %class.QGraphicsScene, ptr, [3 x %class.QList.22], ptr, %class.QString, %class.QList, %class.QList, i8, %class.QList.25, %class.QList, ptr, ptr }
%class.QDockWidget = type { %class.QWidget }
%class.QWidget = type { %class.QObject, %class.QPaintDevice, ptr }
%class.QPaintDevice = type { ptr, i16, ptr }
%"class.Ui::QualityMapperDialogClass" = type { %class.Ui_QualityMapperDialogClass }
%class.Ui_QualityMapperDialogClass = type { ptr, ptr, ptr, ptr, ptr, ptr, ptr, ptr, ptr, ptr, ptr, ptr, ptr, ptr, ptr, ptr, ptr, ptr, ptr, ptr, ptr, ptr, ptr, ptr, ptr, ptr, ptr, ptr, ptr, ptr, ptr, ptr, ptr, ptr, ptr, ptr, ptr, ptr, ptr, ptr, ptr, ptr, ptr, ptr, ptr, ptr, ptr, ptr, ptr, ptr, ptr, ptr, ptr, ptr, ptr, ptr, ptr, ptr, ptr, ptr, ptr, ptr, ptr, ptr, ptr, ptr, ptr, ptr }
%class.QGraphicsScene = type { %class.QObject }
%class.QList.22 = type { %union.anon.24 }
%union.anon.24 = type { %struct.QListData }
%struct.QListData = type { ptr }
%class.QList.25 = type { %union.anon.27 }
%union.anon.27 = type { %struct.QListData }
%class.QList = type { %union.anon }
%union.anon = type { %struct.QListData }

; Function Attrs: mustprogress nounwind uwtable
define linkonce_odr noundef i32 @_ZN8TFHandle10getChannelEv(ptr noundef nonnull align 8 dereferenceable(81) %0) #4 comdat align 2 {
  %2 = alloca ptr, align 8
  store ptr %0, ptr %2, align 8
  %3 = load ptr, ptr %2, align 8
  %4 = getelementptr inbounds %class.TFHandle, ptr %3, i32 0, i32 1
  %5 = load i32, ptr %4, align 8
  ret i32 %5
}

; Function Attrs: mustprogress nounwind uwtable
define linkonce_odr noundef float @_ZN8TFHandle12getRelativeYEv(ptr noundef nonnull align 8 dereferenceable(81) %0) #4 comdat align 2 {
  %2 = alloca ptr, align 8
  store ptr %0, ptr %2, align 8
  %3 = load ptr, ptr %2, align 8
  %4 = getelementptr inbounds %class.TFHandle, ptr %3, i32 0, i32 3
  %5 = load ptr, ptr %4, align 8
  %6 = getelementptr inbounds %struct.TF_KEY, ptr %5, i32 0, i32 1
  %7 = load float, ptr %6, align 4
  ret float %7
}

; Function Attrs: mustprogress nounwind uwtable
define linkonce_odr noundef float @_ZN8TFHandle12getRelativeXEv(ptr noundef nonnull align 8 dereferenceable(81) %0) #4 comdat align 2 {
  %2 = alloca ptr, align 8
  store ptr %0, ptr %2, align 8
  %3 = load ptr, ptr %2, align 8
  %4 = getelementptr inbounds %class.TFHandle, ptr %3, i32 0, i32 3
  %5 = load ptr, ptr %4, align 8
  %6 = getelementptr inbounds %struct.TF_KEY, ptr %5, i32 0, i32 0
  %7 = load float, ptr %6, align 4
  ret float %7
}

; Function Attrs: mustprogress nounwind uwtable
define linkonce_odr void @_ZN8TFHandle19setCurrentlSelectedEb(ptr noundef nonnull align 8 dereferenceable(81) %0, i1 noundef zeroext %1) #4 comdat align 2 {
  %3 = alloca ptr, align 8
  %4 = alloca i8, align 1
  store ptr %0, ptr %3, align 8
  %5 = zext i1 %1 to i8
  store i8 %5, ptr %4, align 1
  %6 = load ptr, ptr %3, align 8
  %7 = load i8, ptr %4, align 1
  %8 = trunc i8 %7 to i1
  %9 = getelementptr inbounds %class.TFHandle, ptr %6, i32 0, i32 4
  %10 = zext i1 %8 to i8
  store i8 %10, ptr %9, align 8
  ret void
}

; Function Attrs: mustprogress uwtable
define void @_ZN19QualityMapperDialog19on_TfHandle_clickedEP8TFHandle(ptr noundef nonnull align 8 dereferenceable(824) %0, ptr noundef %1) #5 align 2 {
  %3 = alloca ptr, align 8
  %4 = alloca ptr, align 8
  store ptr %0, ptr %3, align 8
  store ptr %1, ptr %4, align 8
  %5 = load ptr, ptr %3, align 8
  %6 = getelementptr inbounds %class.QualityMapperDialog, ptr %5, i32 0, i32 17
  %7 = load ptr, ptr %6, align 8
  %8 = icmp ne ptr %7, null
  br i1 %8, label %9, label %12

9:                                                ; preds = %2
  %10 = getelementptr inbounds %class.QualityMapperDialog, ptr %5, i32 0, i32 17
  %11 = load ptr, ptr %10, align 8
  call void @_ZN8TFHandle19setCurrentlSelectedEb(ptr noundef nonnull align 8 dereferenceable(81) %11, i1 noundef zeroext false)
  br label %12

12:                                               ; preds = %9, %2
  %13 = load ptr, ptr %4, align 8
  %14 = getelementptr inbounds %class.QualityMapperDialog, ptr %5, i32 0, i32 17
  store ptr %13, ptr %14, align 8
  %15 = getelementptr inbounds %class.QualityMapperDialog, ptr %5, i32 0, i32 17
  %16 = load ptr, ptr %15, align 8
  call void @_ZN8TFHandle19setCurrentlSelectedEb(ptr noundef nonnull align 8 dereferenceable(81) %16, i1 noundef zeroext true)
  %17 = getelementptr inbounds %class.QualityMapperDialog, ptr %5, i32 0, i32 1
  %18 = getelementptr inbounds %class.Ui_QualityMapperDialogClass, ptr %17, i32 0, i32 19
  %19 = load ptr, ptr %18, align 8
  %20 = getelementptr inbounds %class.QualityMapperDialog, ptr %5, i32 0, i32 17
  %21 = load ptr, ptr %20, align 8
  %22 = call noundef float @_ZN8TFHandle12getRelativeXEv(ptr noundef nonnull align 8 dereferenceable(81) %21)
  %23 = fpext float %22 to double
  call void @_ZN14QDoubleSpinBox8setValueEd(ptr noundef nonnull align 8 dereferenceable(48) %19, double noundef %23)
  %24 = getelementptr inbounds %class.QualityMapperDialog, ptr %5, i32 0, i32 1
  %25 = getelementptr inbounds %class.Ui_QualityMapperDialogClass, ptr %24, i32 0, i32 21
  %26 = load ptr, ptr %25, align 8
  %27 = getelementptr inbounds %class.QualityMapperDialog, ptr %5, i32 0, i32 17
  %28 = load ptr, ptr %27, align 8
  %29 = call noundef float @_ZN8TFHandle12getRelativeYEv(ptr noundef nonnull align 8 dereferenceable(81) %28)
  %30 = fpext float %29 to double
  call void @_ZN14QDoubleSpinBox8setValueEd(ptr noundef nonnull align 8 dereferenceable(48) %26, double noundef %30)
  %31 = load ptr, ptr %4, align 8
  %32 = call noundef i32 @_ZN8TFHandle10getChannelEv(ptr noundef nonnull align 8 dereferenceable(81) %31)
  call void @_ZN19QualityMapperDialog16moveAheadChannelE11TF_CHANNELS(ptr noundef nonnull align 8 dereferenceable(824) %5, i32 noundef %32)
  %33 = getelementptr inbounds %class.QualityMapperDialog, ptr %5, i32 0, i32 17
  %34 = load ptr, ptr %33, align 8
  %35 = call noundef float @_ZN8TFHandle12getRelativeXEv(ptr noundef nonnull align 8 dereferenceable(81) %34)
  call void @_ZN19QualityMapperDialog19updateXQualityLabelEf(ptr noundef nonnull align 8 dereferenceable(824) %5, float noundef %35)
  %36 = getelementptr inbounds %class.QualityMapperDialog, ptr %5, i32 0, i32 1
  %37 = getelementptr inbounds %class.Ui_QualityMapperDialogClass, ptr %36, i32 0, i32 65
  %38 = load ptr, ptr %37, align 8
  %39 = call noundef zeroext i1 @_ZNK15QAbstractButton9isCheckedEv(ptr noundef nonnull align 8 dereferenceable(48) %38)
  br i1 %39, label %40, label %41

40:                                               ; preds = %12
  call void @_ZN19QualityMapperDialog22on_applyButton_clickedEv(ptr noundef nonnull align 8 dereferenceable(824) %5)
  br label %41

41:                                               ; preds = %40, %12
  ret void
}