; Function Attrs: mustprogress uwtable
define void @_ZN19QualityMapperDialog19on_TfHandle_clickedEP8TFHandle(ptr noundef nonnull align 8 dereferenceable(824) %0, ptr noundef %1) local_unnamed_addr #9 align 2 {
  %3 = getelementptr inbounds i8, ptr %0, i64 752
  %4 = load ptr, ptr %3, align 8
  %.not = icmp eq ptr %4, null
  br i1 %.not, label %7, label %5

5:                                                ; preds = %2
  %6 = getelementptr inbounds i8, ptr %4, i64 80
  store i8 0, ptr %6, align 8
  br label %7

7:                                                ; preds = %5, %2
  store ptr %1, ptr %3, align 8
  %8 = getelementptr inbounds i8, ptr %1, i64 80
  store i8 1, ptr %8, align 8
  %9 = getelementptr inbounds i8, ptr %0, i64 200
  %10 = load ptr, ptr %9, align 8
  %11 = load ptr, ptr %3, align 8
  %12 = getelementptr inbounds i8, ptr %11, i64 72
  %13 = load ptr, ptr %12, align 8
  %14 = load float, ptr %13, align 4
  %15 = fpext float %14 to double
  tail call void @_ZN14QDoubleSpinBox8setValueEd(ptr noundef nonnull align 8 dereferenceable(48) %10, double noundef %15)
  %16 = getelementptr inbounds i8, ptr %0, i64 216
  %17 = load ptr, ptr %16, align 8
  %18 = load ptr, ptr %3, align 8
  %19 = getelementptr inbounds i8, ptr %18, i64 72
  %20 = load ptr, ptr %19, align 8
  %21 = getelementptr inbounds i8, ptr %20, i64 4
  %22 = load float, ptr %21, align 4
  %23 = fpext float %22 to double
  tail call void @_ZN14QDoubleSpinBox8setValueEd(ptr noundef nonnull align 8 dereferenceable(48) %17, double noundef %23)
  %24 = getelementptr inbounds i8, ptr %1, i64 64
  %25 = load i32, ptr %24, align 8
  tail call void @_ZN19QualityMapperDialog16moveAheadChannelE11TF_CHANNELS(ptr noundef nonnull align 8 dereferenceable(824) %0, i32 noundef %25)
  %26 = load ptr, ptr %3, align 8
  %27 = getelementptr inbounds i8, ptr %26, i64 72
  %28 = load ptr, ptr %27, align 8
  %29 = load float, ptr %28, align 4
  tail call void @_ZN19QualityMapperDialog19updateXQualityLabelEf(ptr noundef nonnull align 8 dereferenceable(824) %0, float noundef %29)
  %30 = getelementptr inbounds i8, ptr %0, i64 568
  %31 = load ptr, ptr %30, align 8
  %32 = tail call noundef zeroext i1 @_ZNK15QAbstractButton9isCheckedEv(ptr noundef nonnull align 8 dereferenceable(48) %31)
  br i1 %32, label %33, label %34

33:                                               ; preds = %7
  tail call void @_ZN19QualityMapperDialog22on_applyButton_clickedEv(ptr noundef nonnull align 8 dereferenceable(824) %0)
  br label %34

34:                                               ; preds = %33, %7
  ret void
}